(lp1
ccopy_reg
_reconstructor
p2
(c__main__
Node
p3
c__builtin__
object
p4
NtRp5
(dp6
S'type'
p7
VA_Expr
p8
sS'children'
p9
(lp10
g2
(g3
g4
NtRp11
(dp12
g7
VColumnRef
p13
sg9
(lp14
g2
(g3
g4
NtRp15
(dp16
g7
VString
p17
sg9
(lp18
sS'parent'
p19
g11
sbasg19
g5
sbag2
(g3
g4
NtRp20
(dp21
g7
VString
p22
sg9
(lp23
sg19
g5
sbag2
(g3
g4
NtRp24
(dp25
g7
VA_Const
p26
sg9
(lp27
g2
(g3
g4
NtRp28
(dp29
g7
VInteger
p30
sg9
(lp31
sg19
g24
sbasg19
g5
sbasg19
g2
(g3
g4
NtRp32
(dp33
g7
VSelectStmt
p34
sg9
(lp35
g5
ag2
(g3
g4
NtRp36
(dp37
g7
VResTarget
p38
sg9
(lp39
g2
(g3
g4
NtRp40
(dp41
g7
VColumnRef
p42
sg9
(lp43
g2
(g3
g4
NtRp44
(dp45
g7
VString
p46
sg9
(lp47
sg19
g40
sbasg19
g36
sbasg19
g32
sbag2
(g3
g4
NtRp48
(dp49
g7
VResTarget
p50
sg9
(lp51
g2
(g3
g4
NtRp52
(dp53
g7
VColumnRef
p54
sg9
(lp55
g2
(g3
g4
NtRp56
(dp57
g7
VString
p58
sg9
(lp59
sg19
g52
sbasg19
g48
sbasg19
g32
sbag2
(g3
g4
NtRp60
(dp61
g7
VRangeVar
p62
sg9
(lp63
sg19
g32
sbasg19
g2
(g3
g4
NtRp64
(dp65
g7
VSelectStmt
p66
sg9
(lp67
g32
ag2
(g3
g4
NtRp68
(dp69
g7
VSelectStmt
p70
sg9
(lp71
g2
(g3
g4
NtRp72
(dp73
g7
VResTarget
p74
sg9
(lp75
g2
(g3
g4
NtRp76
(dp77
g7
VA_Const
p78
sg9
(lp79
g2
(g3
g4
NtRp80
(dp81
g7
VInteger
p82
sg9
(lp83
sg19
g76
sbasg19
g72
sbasg19
g68
sbag2
(g3
g4
NtRp84
(dp85
g7
VRangeVar
p86
sg9
(lp87
sg19
g68
sbasg19
g64
sbasg19
Nsbsbsba.